target datalayout = "e-m:e-p270:32:32-p271:32:32-p272:64:64-i64:64-i128:128-f80:128-n8:16:32:64-S128"
target triple = "x86_64-pc-linux-gnu"

%struct.FilterLinkInternal = type { %struct.FilterLink, ptr, %struct.FFFrameQueue, i32, i32, i64, i32, i32, i32, i32 }
%struct.FilterLink = type { %struct.AVFilterLink, ptr, i64, i64, i32, i32, i64, i64, i64, i64, %struct.AVRational, ptr }
%struct.AVFilterLink = type { ptr, ptr, ptr, ptr, i32, i32, i32, i32, %struct.AVRational, i32, i32, i32, %struct.AVChannelLayout, %struct.AVRational, ptr, i32, %struct.AVFilterFormatsConfig, %struct.AVFilterFormatsConfig }
%struct.AVChannelLayout = type { i32, i32, %union.anon.0, ptr }
%union.anon.0 = type { i64 }
%struct.AVFilterFormatsConfig = type { ptr, ptr, ptr, ptr, ptr }
%struct.AVRational = type { i32, i32 }
%struct.FFFrameQueue = type { ptr, i64, i64, i64, %struct.FFFrameBucket, i64, i64, i64, i64, i32 }
%struct.FFFrameBucket = type { ptr }

; Function Attrs: inlinehint nounwind uwtable
define internal i64 @ff_framequeue_queued_samples(ptr noundef %0) #4 {
  %2 = alloca ptr, align 8
  store ptr %0, ptr %2, align 8, !tbaa !121
  %3 = load ptr, ptr %2, align 8, !tbaa !121
  %4 = getelementptr inbounds nuw %struct.FFFrameQueue, ptr %3, i32 0, i32 7
  %5 = load i64, ptr %4, align 8, !tbaa !203
  %6 = load ptr, ptr %2, align 8, !tbaa !121
  %7 = getelementptr inbounds nuw %struct.FFFrameQueue, ptr %6, i32 0, i32 8
  %8 = load i64, ptr %7, align 8, !tbaa !204
  %9 = sub i64 %5, %8
  ret i64 %9
}

; Function Attrs: inlinehint nounwind uwtable
define internal ptr @ff_link_internal(ptr noundef %0) #4 {
  %2 = alloca ptr, align 8
  store ptr %0, ptr %2, align 8, !tbaa !26
  %3 = load ptr, ptr %2, align 8, !tbaa !26
  ret ptr %3
}

; Function Attrs: nounwind uwtable
define i32 @ff_inlink_check_available_samples(ptr noundef %0, i32 noundef %1) #0 {
  %3 = alloca ptr, align 8
  %4 = alloca i32, align 4
  %5 = alloca ptr, align 8
  %6 = alloca i64, align 8
  store ptr %0, ptr %3, align 8, !tbaa !26
  store i32 %1, ptr %4, align 4, !tbaa !19
  call void @llvm.lifetime.start.p0(i64 8, ptr %5) #11
  %7 = load ptr, ptr %3, align 8, !tbaa !26
  %8 = call ptr @ff_link_internal(ptr noundef %7)
  store ptr %8, ptr %5, align 8, !tbaa !47
  call void @llvm.lifetime.start.p0(i64 8, ptr %6) #11
  %9 = load ptr, ptr %5, align 8, !tbaa !47
  %10 = getelementptr inbounds nuw %struct.FilterLinkInternal, ptr %9, i32 0, i32 2
  %11 = call i64 @ff_framequeue_queued_samples(ptr noundef %10)
  store i64 %11, ptr %6, align 8, !tbaa !77
  %12 = load i64, ptr %6, align 8, !tbaa !77
  %13 = load i32, ptr %4, align 4, !tbaa !19
  %14 = zext i32 %13 to i64
  %15 = icmp uge i64 %12, %14
  br i1 %15, label %26, label %16

16:                                               ; preds = %2
  %17 = load ptr, ptr %5, align 8, !tbaa !47
  %18 = getelementptr inbounds nuw %struct.FilterLinkInternal, ptr %17, i32 0, i32 4
  %19 = load i32, ptr %18, align 4, !tbaa !78
  %20 = icmp ne i32 %19, 0
  br i1 %20, label %21, label %24

21:                                               ; preds = %16
  %22 = load i64, ptr %6, align 8, !tbaa !77
  %23 = icmp ne i64 %22, 0
  br label %24

24:                                               ; preds = %21, %16
  %25 = phi i1 [ false, %16 ], [ %23, %21 ]
  br label %26

26:                                               ; preds = %24, %2
  %27 = phi i1 [ true, %2 ], [ %25, %24 ]
  %28 = zext i1 %27 to i32
  call void @llvm.lifetime.end.p0(i64 8, ptr %6) #11
  call void @llvm.lifetime.end.p0(i64 8, ptr %5) #11
  ret i32 %28
}