; Function Attrs: mustprogress nofree norecurse nosync nounwind willreturn memory(argmem: read) uwtable
define range(i32 0, 2) i32 @ff_inlink_check_available_samples(ptr noundef readonly captures(none) %0, i32 noundef %1) local_unnamed_addr #8 {
  %3 = getelementptr i8, ptr %0, i64 344
  %.val = load i64, ptr %3, align 8, !tbaa !166
  %4 = getelementptr i8, ptr %0, i64 352
  %.val5 = load i64, ptr %4, align 8, !tbaa !167
  %5 = sub i64 %.val, %.val5
  %6 = zext i32 %1 to i64
  %.not = icmp ult i64 %5, %6
  br i1 %.not, label %7, label %14

7:                                                ; preds = %2
  %8 = getelementptr inbounds nuw i8, ptr %0, i64 372
  %9 = load i32, ptr %8, align 4, !tbaa !63
  %10 = icmp ne i32 %9, 0
  %11 = icmp ne i64 %.val, %.val5
  %12 = and i1 %11, %10
  %13 = zext i1 %12 to i32
  br label %14

14:                                               ; preds = %7, %2
  %15 = phi i32 [ 1, %2 ], [ %13, %7 ]
  ret i32 %15
}